target datalayout = "e-m:e-p270:32:32-p271:32:32-p272:64:64-i64:64-i128:128-f80:128-n8:16:32:64-S128"
target triple = "x86_64-pc-linux-gnu"

%struct.MagicYUVContext = type { ptr, i32, i32, i8, i32, i32, i32, [4 x i32], [4 x i32], [2 x ptr], ptr, [4 x [256 x %struct.HuffEntry]], %struct.LLVidEncDSPContext, ptr }
%struct.HuffEntry = type { i8, i32 }
%struct.LLVidEncDSPContext = type { ptr, ptr, ptr }

; Function Attrs: nounwind uwtable
define internal void @median_predict(ptr noundef %0, ptr noundef %1, ptr noundef %2, i64 noundef %3, i32 noundef %4, i32 noundef %5) #1 {
  %7 = alloca ptr, align 8
  %8 = alloca ptr, align 8
  %9 = alloca ptr, align 8
  %10 = alloca i64, align 8
  %11 = alloca i32, align 4
  %12 = alloca i32, align 4
  %13 = alloca i32, align 4
  %14 = alloca i32, align 4
  %15 = alloca i32, align 4
  %16 = alloca i32, align 4
  store ptr %0, ptr %7, align 8, !tbaa !29
  store ptr %1, ptr %8, align 8, !tbaa !48
  store ptr %2, ptr %9, align 8, !tbaa !48
  store i64 %3, ptr %10, align 8, !tbaa !46
  store i32 %4, ptr %11, align 4, !tbaa !38
  store i32 %5, ptr %12, align 4, !tbaa !38
  call void @llvm.lifetime.start.p0(i64 4, ptr %13) #11
  store i32 0, ptr %13, align 4, !tbaa !38
  call void @llvm.lifetime.start.p0(i64 4, ptr %14) #11
  call void @llvm.lifetime.start.p0(i64 4, ptr %15) #11
  call void @llvm.lifetime.start.p0(i64 4, ptr %16) #11
  store i32 0, ptr %15, align 4, !tbaa !38
  br label %17

17:                                               ; preds = %41, %6
  %18 = load i32, ptr %15, align 4, !tbaa !38
  %19 = load i32, ptr %11, align 4, !tbaa !38
  %20 = icmp slt i32 %18, %19
  br i1 %20, label %21, label %44

21:                                               ; preds = %17
  %22 = load ptr, ptr %8, align 8, !tbaa !48
  %23 = load i32, ptr %15, align 4, !tbaa !38
  %24 = sext i32 %23 to i64
  %25 = getelementptr inbounds i8, ptr %22, i64 %24
  %26 = load i8, ptr %25, align 1, !tbaa !86
  %27 = zext i8 %26 to i32
  %28 = load i32, ptr %13, align 4, !tbaa !38
  %29 = sub nsw i32 %27, %28
  %30 = trunc i32 %29 to i8
  %31 = load ptr, ptr %9, align 8, !tbaa !48
  %32 = load i32, ptr %15, align 4, !tbaa !38
  %33 = sext i32 %32 to i64
  %34 = getelementptr inbounds i8, ptr %31, i64 %33
  store i8 %30, ptr %34, align 1, !tbaa !86
  %35 = load ptr, ptr %8, align 8, !tbaa !48
  %36 = load i32, ptr %15, align 4, !tbaa !38
  %37 = sext i32 %36 to i64
  %38 = getelementptr inbounds i8, ptr %35, i64 %37
  %39 = load i8, ptr %38, align 1, !tbaa !86
  %40 = zext i8 %39 to i32
  store i32 %40, ptr %13, align 4, !tbaa !38
  br label %41

41:                                               ; preds = %21
  %42 = load i32, ptr %15, align 4, !tbaa !38
  %43 = add nsw i32 %42, 1
  store i32 %43, ptr %15, align 4, !tbaa !38
  br label %17, !llvm.loop !93

44:                                               ; preds = %17
  %45 = load i32, ptr %11, align 4, !tbaa !38
  %46 = load ptr, ptr %9, align 8, !tbaa !48
  %47 = sext i32 %45 to i64
  %48 = getelementptr inbounds i8, ptr %46, i64 %47
  store ptr %48, ptr %9, align 8, !tbaa !48
  %49 = load i64, ptr %10, align 8, !tbaa !46
  %50 = load ptr, ptr %8, align 8, !tbaa !48
  %51 = getelementptr inbounds i8, ptr %50, i64 %49
  store ptr %51, ptr %8, align 8, !tbaa !48
  store i32 1, ptr %16, align 4, !tbaa !38
  br label %52

52:                                               ; preds = %82, %44
  %53 = load i32, ptr %16, align 4, !tbaa !38
  %54 = load i32, ptr %12, align 4, !tbaa !38
  %55 = icmp slt i32 %53, %54
  br i1 %55, label %56, label %85

56:                                               ; preds = %52
  %57 = load ptr, ptr %8, align 8, !tbaa !48
  %58 = load i64, ptr %10, align 8, !tbaa !46
  %59 = sub nsw i64 0, %58
  %60 = getelementptr inbounds i8, ptr %57, i64 %59
  %61 = load i8, ptr %60, align 1, !tbaa !86
  %62 = zext i8 %61 to i32
  store i32 %62, ptr %14, align 4, !tbaa !38
  store i32 %62, ptr %13, align 4, !tbaa !38
  %63 = load ptr, ptr %7, align 8, !tbaa !29
  %64 = getelementptr inbounds nuw %struct.MagicYUVContext, ptr %63, i32 0, i32 12
  %65 = getelementptr inbounds nuw %struct.LLVidEncDSPContext, ptr %64, i32 0, i32 1
  %66 = load ptr, ptr %65, align 8, !tbaa !94
  %67 = load ptr, ptr %9, align 8, !tbaa !48
  %68 = load ptr, ptr %8, align 8, !tbaa !48
  %69 = load i64, ptr %10, align 8, !tbaa !46
  %70 = sub i64 0, %69
  %71 = getelementptr inbounds i8, ptr %68, i64 %70
  %72 = load ptr, ptr %8, align 8, !tbaa !48
  %73 = load i32, ptr %11, align 4, !tbaa !38
  %74 = sext i32 %73 to i64
  call void %66(ptr noundef %67, ptr noundef %71, ptr noundef %72, i64 noundef %74, ptr noundef %13, ptr noundef %14)
  %75 = load i32, ptr %11, align 4, !tbaa !38
  %76 = load ptr, ptr %9, align 8, !tbaa !48
  %77 = sext i32 %75 to i64
  %78 = getelementptr inbounds i8, ptr %76, i64 %77
  store ptr %78, ptr %9, align 8, !tbaa !48
  %79 = load i64, ptr %10, align 8, !tbaa !46
  %80 = load ptr, ptr %8, align 8, !tbaa !48
  %81 = getelementptr inbounds i8, ptr %80, i64 %79
  store ptr %81, ptr %8, align 8, !tbaa !48
  br label %82

82:                                               ; preds = %56
  %83 = load i32, ptr %16, align 4, !tbaa !38
  %84 = add nsw i32 %83, 1
  store i32 %84, ptr %16, align 4, !tbaa !38
  br label %52, !llvm.loop !95

85:                                               ; preds = %52
  call void @llvm.lifetime.end.p0(i64 4, ptr %16) #11
  call void @llvm.lifetime.end.p0(i64 4, ptr %15) #11
  call void @llvm.lifetime.end.p0(i64 4, ptr %14) #11
  call void @llvm.lifetime.end.p0(i64 4, ptr %13) #11
  ret void
}