; Function Attrs: nounwind uwtable
define internal void @median_predict(ptr noundef readonly captures(none) %0, ptr noundef %1, ptr noundef %2, i64 noundef %3, i32 noundef %4, i32 noundef %5) #1 {
  %7 = alloca i32, align 4
  %8 = alloca i32, align 4
  call void @llvm.lifetime.start.p0(i64 4, ptr nonnull %7) #9
  call void @llvm.lifetime.start.p0(i64 4, ptr nonnull %8) #9
  %9 = icmp sgt i32 %4, 0
  br i1 %9, label %.lr.ph.preheader, label %._crit_edge

.lr.ph.preheader:                                 ; preds = %6
  %wide.trip.count = zext nneg i32 %4 to i64
  br label %.lr.ph

.lr.ph:                                           ; preds = %.lr.ph.preheader, %.lr.ph
  %indvars.iv = phi i64 [ 0, %.lr.ph.preheader ], [ %indvars.iv.next, %.lr.ph ]
  %10 = phi i8 [ 0, %.lr.ph.preheader ], [ %15, %.lr.ph ]
  %11 = getelementptr inbounds nuw i8, ptr %1, i64 %indvars.iv
  %12 = load i8, ptr %11, align 1, !tbaa !55
  %13 = sub i8 %12, %10
  %14 = getelementptr inbounds nuw i8, ptr %2, i64 %indvars.iv
  store i8 %13, ptr %14, align 1, !tbaa !55
  %15 = load i8, ptr %11, align 1, !tbaa !55
  %indvars.iv.next = add nuw nsw i64 %indvars.iv, 1
  %exitcond.not = icmp eq i64 %indvars.iv.next, %wide.trip.count
  br i1 %exitcond.not, label %._crit_edge, label %.lr.ph, !llvm.loop !110

._crit_edge:                                      ; preds = %.lr.ph, %6
  %16 = sext i32 %4 to i64
  %17 = icmp sgt i32 %5, 1
  br i1 %17, label %.lr.ph37, label %._crit_edge38

.lr.ph37:                                         ; preds = %._crit_edge
  %18 = getelementptr inbounds nuw i8, ptr %0, i64 8288
  br label %19

19:                                               ; preds = %.lr.ph37, %19
  %.035 = phi i32 [ 1, %.lr.ph37 ], [ %23, %19 ]
  %.pn3134 = phi ptr [ %1, %.lr.ph37 ], [ %.028, %19 ]
  %.pn33 = phi ptr [ %2, %.lr.ph37 ], [ %.029, %19 ]
  %.028 = getelementptr inbounds i8, ptr %.pn3134, i64 %3
  %.029 = getelementptr inbounds i8, ptr %.pn33, i64 %16
  %20 = load i8, ptr %.pn3134, align 1, !tbaa !55
  %21 = zext i8 %20 to i32
  store i32 %21, ptr %8, align 4, !tbaa !33
  store i32 %21, ptr %7, align 4, !tbaa !33
  %22 = load ptr, ptr %18, align 8, !tbaa !111
  call void %22(ptr noundef %.029, ptr noundef nonnull %.pn3134, ptr noundef nonnull %.028, i64 noundef %16, ptr noundef nonnull %7, ptr noundef nonnull %8) #9
  %23 = add nuw nsw i32 %.035, 1
  %exitcond40.not = icmp eq i32 %23, %5
  br i1 %exitcond40.not, label %._crit_edge38, label %19, !llvm.loop !112

._crit_edge38:                                    ; preds = %19, %._crit_edge
  call void @llvm.lifetime.end.p0(i64 4, ptr nonnull %8) #9
  call void @llvm.lifetime.end.p0(i64 4, ptr nonnull %7) #9
  ret void
}